; Function Attrs: mustprogress nounwind uwtable
define dso_local void @_ZN4node7tracing11TracedValue10AppendNullEv(ptr noundef nonnull align 8 dereferenceable(42) %this) local_unnamed_addr #0 align 2 {
entry:
  %first_item_.i = getelementptr inbounds i8, ptr %this, i64 40
  %0 = load i8, ptr %first_item_.i, align 8
  %1 = and i8 %0, 1
  %tobool.not.i = icmp eq i8 %1, 0
  br i1 %tobool.not.i, label %if.else.i, label %if.then.i

if.then.i:                                        ; preds = %entry
  store i8 0, ptr %first_item_.i, align 8
  br label %_ZN4node7tracing11TracedValue10WriteCommaEv.exit

if.else.i:                                        ; preds = %entry
  %data_.i = getelementptr inbounds i8, ptr %this, i64 8
  %call.i = tail call noundef nonnull align 8 dereferenceable(32) ptr @_ZNSt7__cxx1112basic_stringIcSt11char_traitsIcESaIcEEpLEc(ptr noundef nonnull align 8 dereferenceable(32) %data_.i, i8 noundef signext 44) #10
  br label %_ZN4node7tracing11TracedValue10WriteCommaEv.exit

_ZN4node7tracing11TracedValue10WriteCommaEv.exit: ; preds = %if.then.i, %if.else.i
  %data_ = getelementptr inbounds i8, ptr %this, i64 8
  %call = tail call noundef nonnull align 8 dereferenceable(32) ptr @_ZNSt7__cxx1112basic_stringIcSt11char_traitsIcESaIcEEpLEPKc(ptr noundef nonnull align 8 dereferenceable(32) %data_, ptr noundef nonnull @.str.2) #10
  ret void
}